target datalayout = "e-m:e-p270:32:32-p271:32:32-p272:64:64-i64:64-i128:128-f80:128-n8:16:32:64-S128"
target triple = "x86_64-pc-linux-gnu"

%struct.aeEventLoop = type { i32, i32, i64, i32, ptr, ptr, ptr, i32, ptr, ptr, ptr, i32, [2 x ptr] }
%struct.aeApiState = type { i32, ptr }
%struct.aeTimeEvent = type { i64, i64, ptr, ptr, ptr, ptr, ptr, i32 }

; Function Attrs: nounwind uwtable
define internal void @aeApiFree(ptr noundef %0) #0 {
  %2 = alloca ptr, align 8
  %3 = alloca ptr, align 8
  store ptr %0, ptr %2, align 8, !tbaa !9
  call void @llvm.lifetime.start.p0(i64 8, ptr %3) #10
  %4 = load ptr, ptr %2, align 8, !tbaa !9
  %5 = getelementptr inbounds nuw %struct.aeEventLoop, ptr %4, i32 0, i32 8
  %6 = load ptr, ptr %5, align 8, !tbaa !38
  store ptr %6, ptr %3, align 8, !tbaa !32
  %7 = load ptr, ptr %3, align 8, !tbaa !32
  %8 = getelementptr inbounds nuw %struct.aeApiState, ptr %7, i32 0, i32 0
  %9 = load i32, ptr %8, align 8, !tbaa !37
  %10 = call i32 @close(i32 noundef %9)
  %11 = load ptr, ptr %3, align 8, !tbaa !32
  %12 = getelementptr inbounds nuw %struct.aeApiState, ptr %11, i32 0, i32 1
  %13 = load ptr, ptr %12, align 8, !tbaa !34
  call void @zfree(ptr noundef %13)
  %14 = load ptr, ptr %3, align 8, !tbaa !32
  call void @zfree(ptr noundef %14)
  call void @llvm.lifetime.end.p0(i64 8, ptr %3) #10
  ret void
}

; Function Attrs: nounwind uwtable
define dso_local void @aeDeleteEventLoop(ptr noundef %0) #0 {
  %2 = alloca ptr, align 8
  %3 = alloca ptr, align 8
  %4 = alloca ptr, align 8
  store ptr %0, ptr %2, align 8, !tbaa !9
  %5 = load ptr, ptr %2, align 8, !tbaa !9
  call void @aeApiFree(ptr noundef %5)
  %6 = load ptr, ptr %2, align 8, !tbaa !9
  %7 = getelementptr inbounds nuw %struct.aeEventLoop, ptr %6, i32 0, i32 4
  %8 = load ptr, ptr %7, align 8, !tbaa !18
  call void @zfree(ptr noundef %8)
  %9 = load ptr, ptr %2, align 8, !tbaa !9
  %10 = getelementptr inbounds nuw %struct.aeEventLoop, ptr %9, i32 0, i32 5
  %11 = load ptr, ptr %10, align 8, !tbaa !19
  call void @zfree(ptr noundef %11)
  call void @llvm.lifetime.start.p0(i64 8, ptr %3) #10
  call void @llvm.lifetime.start.p0(i64 8, ptr %4) #10
  %12 = load ptr, ptr %2, align 8, !tbaa !9
  %13 = getelementptr inbounds nuw %struct.aeEventLoop, ptr %12, i32 0, i32 6
  %14 = load ptr, ptr %13, align 8, !tbaa !21
  store ptr %14, ptr %4, align 8, !tbaa !39
  br label %15

15:                                               ; preds = %34, %1
  %16 = load ptr, ptr %4, align 8, !tbaa !39
  %17 = icmp ne ptr %16, null
  br i1 %17, label %18, label %37

18:                                               ; preds = %15
  %19 = load ptr, ptr %4, align 8, !tbaa !39
  %20 = getelementptr inbounds nuw %struct.aeTimeEvent, ptr %19, i32 0, i32 6
  %21 = load ptr, ptr %20, align 8, !tbaa !40
  store ptr %21, ptr %3, align 8, !tbaa !39
  %22 = load ptr, ptr %4, align 8, !tbaa !39
  %23 = getelementptr inbounds nuw %struct.aeTimeEvent, ptr %22, i32 0, i32 3
  %24 = load ptr, ptr %23, align 8, !tbaa !43
  %25 = icmp ne ptr %24, null
  br i1 %25, label %26, label %34

26:                                               ; preds = %18
  %27 = load ptr, ptr %4, align 8, !tbaa !39
  %28 = getelementptr inbounds nuw %struct.aeTimeEvent, ptr %27, i32 0, i32 3
  %29 = load ptr, ptr %28, align 8, !tbaa !43
  %30 = load ptr, ptr %2, align 8, !tbaa !9
  %31 = load ptr, ptr %4, align 8, !tbaa !39
  %32 = getelementptr inbounds nuw %struct.aeTimeEvent, ptr %31, i32 0, i32 4
  %33 = load ptr, ptr %32, align 8, !tbaa !44
  call void %29(ptr noundef %30, ptr noundef %33)
  br label %34

34:                                               ; preds = %26, %18
  %35 = load ptr, ptr %4, align 8, !tbaa !39
  call void @zfree(ptr noundef %35)
  %36 = load ptr, ptr %3, align 8, !tbaa !39
  store ptr %36, ptr %4, align 8, !tbaa !39
  br label %15, !llvm.loop !45

37:                                               ; preds = %15
  %38 = load ptr, ptr %2, align 8, !tbaa !9
  call void @zfree(ptr noundef %38)
  call void @llvm.lifetime.end.p0(i64 8, ptr %4) #10
  call void @llvm.lifetime.end.p0(i64 8, ptr %3) #10
  ret void
}