; Function Attrs: nounwind uwtable
define dso_local void @aeDeleteEventLoop(ptr noundef %0) local_unnamed_addr #0 {
  %2 = getelementptr i8, ptr %0, i64 56
  %.val = load ptr, ptr %2, align 8, !tbaa !26
  %3 = load i32, ptr %.val, align 8, !tbaa !25
  %4 = tail call i32 @close(i32 noundef %3) #16
  %5 = getelementptr inbounds nuw i8, ptr %.val, i64 8
  %6 = load ptr, ptr %5, align 8, !tbaa !22
  tail call void @zfree(ptr noundef %6) #16
  tail call void @zfree(ptr noundef nonnull %.val) #16
  %7 = getelementptr inbounds nuw i8, ptr %0, i64 24
  %8 = load ptr, ptr %7, align 8, !tbaa !15
  tail call void @zfree(ptr noundef %8) #16
  %9 = getelementptr inbounds nuw i8, ptr %0, i64 32
  %10 = load ptr, ptr %9, align 8, !tbaa !16
  tail call void @zfree(ptr noundef %10) #16
  %11 = getelementptr inbounds nuw i8, ptr %0, i64 40
  %12 = load ptr, ptr %11, align 8, !tbaa !18
  %.not15 = icmp eq ptr %12, null
  br i1 %.not15, label %._crit_edge, label %.lr.ph

.lr.ph:                                           ; preds = %1, %20
  %.016 = phi ptr [ %14, %20 ], [ %12, %1 ]
  %13 = getelementptr inbounds nuw i8, ptr %.016, i64 48
  %14 = load ptr, ptr %13, align 8, !tbaa !32
  %15 = getelementptr inbounds nuw i8, ptr %.016, i64 24
  %16 = load ptr, ptr %15, align 8, !tbaa !35
  %.not14 = icmp eq ptr %16, null
  br i1 %.not14, label %20, label %17

17:                                               ; preds = %.lr.ph
  %18 = getelementptr inbounds nuw i8, ptr %.016, i64 32
  %19 = load ptr, ptr %18, align 8, !tbaa !36
  tail call void %16(ptr noundef %0, ptr noundef %19) #16
  br label %20

20:                                               ; preds = %17, %.lr.ph
  tail call void @zfree(ptr noundef nonnull %.016) #16
  %.not = icmp eq ptr %14, null
  br i1 %.not, label %._crit_edge, label %.lr.ph, !llvm.loop !37

._crit_edge:                                      ; preds = %20, %1
  tail call void @zfree(ptr noundef %0) #16
  ret void
}